#include <math.h>
#include <stdio.h>
#include <stdlib.h>
#include <string.h>

int main()
{
char str[999],temp[300];
int len,k=0,j,i=0,a,b,c;
gets(str);
len=strlen(str);
for(j=0;j<=len;j++)
{
   if(str[j]==' ')
   {
     while(i<j)
     {
     temp[k]=str[i];
     i++;
     k++;
     }
     temp[k]='\0';
     i++;
     a=strlen(temp);
     if(a!=0)
     printf("%d,",a);
     k=0;
   }
   if(str[j]=='\0')
   {
     while(i<j)
     {
     temp[k]=str[i];
     i++;
     k++;
     }
     temp[k]='\0';
     a=strlen(temp);
     printf("%d",a);
   }
}
return 0;
}
